target datalayout = "e-m:e-p270:32:32-p271:32:32-p272:64:64-i64:64-i128:128-f80:128-n8:16:32:64-S128"
target triple = "x86_64-pc-linux-gnu"

%struct.timespec = type { i64, i64 }

@err_prefix = internal constant [1 x i8] zeroinitializer, align 1
@bench_size = internal global i32 1048576, align 4
@numBlocks = internal global i32 5, align 4
@bench_plain = internal thread_local global ptr null, align 8
@bench_key = internal thread_local global ptr null, align 8
@bench_iv = internal thread_local global ptr null, align 8
@aesAuthAddSz = internal global i32 13, align 4
@bench_cipher = internal thread_local global ptr null, align 8
@.str.38 = private unnamed_addr constant [39 x i8] c"wc_ChaCha20Poly1305_Encrypt error: %d\0A\00", align 1
@.str.39 = private unnamed_addr constant [9 x i8] c"CHA-POLY\00", align 1
@.str.78 = private unnamed_addr constant [28 x i8] c"%s%s L%d error %d for \22%s\22\0A\00", align 1
@.str.79 = private unnamed_addr constant [125 x i8] c"generated/home/dtcxzyw/WorkSpace/Projects/compilers/llvm-opt-benchmark/bench/wolfssl/wolfssl/wolfcrypt/benchmark/benchmark.c\00", align 1
@.str.80 = private unnamed_addr constant [35 x i8] c"clock_gettime(CLOCK_REALTIME, &tv)\00", align 1
@stdout = external global ptr, align 8
@total_cycles = internal thread_local global i64 0, align 8

; Function Attrs: inlinehint nounwind uwtable
define internal i64 @get_intel_cycles() #3 {
  %1 = alloca i32, align 4
  %2 = alloca i32, align 4
  call void @llvm.lifetime.start.p0(i64 4, ptr %1) #12
  call void @llvm.lifetime.start.p0(i64 4, ptr %2) #12
  %3 = call { i32, i32 } asm sideeffect "cpuid\0A\09rdtsc", "={ax},={dx},{ax},~{ebx},~{ecx},~{dirflag},~{fpsr},~{flags}"(i32 0) #12, !srcloc !261
  %4 = extractvalue { i32, i32 } %3, 0
  %5 = extractvalue { i32, i32 } %3, 1
  store i32 %4, ptr %1, align 4, !tbaa !4
  store i32 %5, ptr %2, align 4, !tbaa !4
  %6 = load i32, ptr %1, align 4, !tbaa !4
  %7 = zext i32 %6 to i64
  %8 = load i32, ptr %2, align 4, !tbaa !4
  %9 = zext i32 %8 to i64
  %10 = shl i64 %9, 32
  %11 = or i64 %7, %10
  call void @llvm.lifetime.end.p0(i64 4, ptr %2) #12
  call void @llvm.lifetime.end.p0(i64 4, ptr %1) #12
  ret i64 %11
}

; Function Attrs: nounwind uwtable
define dso_local double @current_time(i32 noundef %0) #0 {
  %2 = alloca i32, align 4
  %3 = alloca %struct.timespec, align 8
  %4 = alloca i32, align 4
  store i32 %0, ptr %2, align 4, !tbaa !4
  call void @llvm.lifetime.start.p0(i64 16, ptr %3) #12
  br label %5

5:                                                ; preds = %1
  call void @llvm.lifetime.start.p0(i64 4, ptr %4) #12
  %6 = call i32 @clock_gettime(i32 noundef 0, ptr noundef %3) #12
  store i32 %6, ptr %4, align 4, !tbaa !4
  %7 = load i32, ptr %4, align 4, !tbaa !4
  %8 = icmp slt i32 %7, 0
  br i1 %8, label %9, label %15

9:                                                ; preds = %5
  %10 = call ptr @__errno_location() #14
  %11 = load i32, ptr %10, align 4, !tbaa !4
  %12 = call i32 (ptr, ...) @printf(ptr noundef @.str.78, ptr noundef @err_prefix, ptr noundef @.str.79, i32 noundef 14994, i32 noundef %11, ptr noundef @.str.80)
  %13 = load ptr, ptr @stdout, align 8, !tbaa !14
  %14 = call i32 @fflush(ptr noundef %13)
  call void @_exit(i32 noundef 1) #15
  unreachable

15:                                               ; preds = %5
  call void @llvm.lifetime.end.p0(i64 4, ptr %4) #12
  br label %16

16:                                               ; preds = %15
  br label %17

17:                                               ; preds = %16
  %18 = getelementptr inbounds nuw %struct.timespec, ptr %3, i32 0, i32 0
  %19 = load i64, ptr %18, align 8, !tbaa !241
  %20 = sitofp i64 %19 to double
  %21 = getelementptr inbounds nuw %struct.timespec, ptr %3, i32 0, i32 1
  %22 = load i64, ptr %21, align 8, !tbaa !243
  %23 = sitofp i64 %22 to double
  %24 = fdiv double %23, 1.000000e+09
  %25 = fadd double %20, %24
  call void @llvm.lifetime.end.p0(i64 16, ptr %3) #12
  ret double %25
}

; Function Attrs: inlinehint nounwind uwtable
define internal i32 @bench_stats_check(double noundef %0) #3 {
  %2 = alloca double, align 8
  %3 = alloca i32, align 4
  %4 = alloca double, align 8
  store double %0, ptr %2, align 8, !tbaa !20
  call void @llvm.lifetime.start.p0(i64 4, ptr %3) #12
  store i32 0, ptr %3, align 4, !tbaa !4
  call void @llvm.lifetime.start.p0(i64 8, ptr %4) #12
  store double 0.000000e+00, ptr %4, align 8, !tbaa !20
  %5 = call double @current_time(i32 noundef 0)
  store double %5, ptr %4, align 8, !tbaa !20
  %6 = load double, ptr %4, align 8, !tbaa !20
  %7 = load double, ptr %2, align 8, !tbaa !20
  %8 = fsub double %6, %7
  %9 = fcmp olt double %8, 1.000000e+00
  %10 = zext i1 %9 to i32
  store i32 %10, ptr %3, align 4, !tbaa !4
  %11 = load i32, ptr %3, align 4, !tbaa !4
  call void @llvm.lifetime.end.p0(i64 8, ptr %4) #12
  call void @llvm.lifetime.end.p0(i64 4, ptr %3) #12
  ret i32 %11
}

; Function Attrs: inlinehint nounwind uwtable
define internal void @bench_stats_start(ptr noundef %0, ptr noundef %1) #3 {
  %3 = alloca ptr, align 8
  %4 = alloca ptr, align 8
  store ptr %0, ptr %3, align 8, !tbaa !23
  store ptr %1, ptr %4, align 8, !tbaa !25
  %5 = load ptr, ptr %3, align 8, !tbaa !23
  store i32 0, ptr %5, align 4, !tbaa !4
  %6 = call double @current_time(i32 noundef 1)
  %7 = load ptr, ptr %4, align 8, !tbaa !25
  store double %6, ptr %7, align 8, !tbaa !20
  %8 = call i64 @get_intel_cycles()
  %9 = call align 8 ptr @llvm.threadlocal.address.p0(ptr align 8 @total_cycles)
  store i64 %8, ptr %9, align 8, !tbaa !10
  ret void
}

; Function Attrs: nounwind uwtable
define dso_local void @bench_chacha20_poly1305_aead() #0 {
  %1 = alloca double, align 8
  %2 = alloca i32, align 4
  %3 = alloca i32, align 4
  %4 = alloca i32, align 4
  %5 = alloca [13 x i8], align 1
  %6 = alloca [16 x i8], align 16
  call void @llvm.lifetime.start.p0(i64 8, ptr %1) #12
  call void @llvm.lifetime.start.p0(i64 4, ptr %2) #12
  store i32 0, ptr %2, align 4, !tbaa !4
  call void @llvm.lifetime.start.p0(i64 4, ptr %3) #12
  call void @llvm.lifetime.start.p0(i64 4, ptr %4) #12
  call void @llvm.lifetime.start.p0(i64 13, ptr %5) #12
  call void @llvm.lifetime.start.p0(i64 16, ptr %6) #12
  br label %7

7:                                                ; preds = %0
  br label %8

8:                                                ; preds = %7
  br label %9

9:                                                ; preds = %8
  br label %10

10:                                               ; preds = %9
  br label %11

11:                                               ; preds = %10
  br label %12

12:                                               ; preds = %11
  %13 = getelementptr inbounds [13 x i8], ptr %5, i64 0, i64 0
  call void @llvm.memset.p0.i64(ptr align 1 %13, i8 0, i64 13, i1 false)
  %14 = getelementptr inbounds [16 x i8], ptr %6, i64 0, i64 0
  call void @llvm.memset.p0.i64(ptr align 16 %14, i8 0, i64 16, i1 false)
  call void @bench_stats_start(ptr noundef %4, ptr noundef %1)
  br label %15

15:                                               ; preds = %50, %12
  store i32 0, ptr %3, align 4, !tbaa !4
  br label %16

16:                                               ; preds = %43, %15
  %17 = load i32, ptr %3, align 4, !tbaa !4
  %18 = load i32, ptr @numBlocks, align 4, !tbaa !4
  %19 = icmp slt i32 %17, %18
  br i1 %19, label %20, label %46

20:                                               ; preds = %16
  %21 = call align 8 ptr @llvm.threadlocal.address.p0(ptr align 8 @bench_key)
  %22 = load ptr, ptr %21, align 8, !tbaa !12
  %23 = call align 8 ptr @llvm.threadlocal.address.p0(ptr align 8 @bench_iv)
  %24 = load ptr, ptr %23, align 8, !tbaa !12
  %25 = getelementptr inbounds [13 x i8], ptr %5, i64 0, i64 0
  %26 = load i32, ptr @aesAuthAddSz, align 4, !tbaa !4
  %27 = call align 8 ptr @llvm.threadlocal.address.p0(ptr align 8 @bench_plain)
  %28 = load ptr, ptr %27, align 8, !tbaa !12
  %29 = load i32, ptr @bench_size, align 4, !tbaa !4
  %30 = call align 8 ptr @llvm.threadlocal.address.p0(ptr align 8 @bench_cipher)
  %31 = load ptr, ptr %30, align 8, !tbaa !12
  %32 = getelementptr inbounds [16 x i8], ptr %6, i64 0, i64 0
  %33 = call i32 @wc_ChaCha20Poly1305_Encrypt(ptr noundef %22, ptr noundef %24, ptr noundef %25, i32 noundef %26, ptr noundef %28, i32 noundef %29, ptr noundef %31, ptr noundef %32)
  store i32 %33, ptr %2, align 4, !tbaa !4
  %34 = load i32, ptr %2, align 4, !tbaa !4
  %35 = icmp slt i32 %34, 0
  br i1 %35, label %36, label %39

36:                                               ; preds = %20
  %37 = load i32, ptr %2, align 4, !tbaa !4
  %38 = call i32 (ptr, ...) @printf(ptr noundef @.str.38, i32 noundef %37)
  br label %59

39:                                               ; preds = %20
  br label %40

40:                                               ; preds = %39
  br label %41

41:                                               ; preds = %40
  br label %42

42:                                               ; preds = %41
  br label %43

43:                                               ; preds = %42
  %44 = load i32, ptr %3, align 4, !tbaa !4
  %45 = add nsw i32 %44, 1
  store i32 %45, ptr %3, align 4, !tbaa !4
  br label %16, !llvm.loop !57

46:                                               ; preds = %16
  %47 = load i32, ptr %3, align 4, !tbaa !4
  %48 = load i32, ptr %4, align 4, !tbaa !4
  %49 = add nsw i32 %48, %47
  store i32 %49, ptr %4, align 4, !tbaa !4
  br label %50

50:                                               ; preds = %46
  %51 = load double, ptr %1, align 8, !tbaa !20
  %52 = call i32 @bench_stats_check(double noundef %51)
  %53 = icmp ne i32 %52, 0
  br i1 %53, label %15, label %54, !llvm.loop !58

54:                                               ; preds = %50
  %55 = load i32, ptr %4, align 4, !tbaa !4
  %56 = load i32, ptr @bench_size, align 4, !tbaa !4
  %57 = load double, ptr %1, align 8, !tbaa !20
  %58 = load i32, ptr %2, align 4, !tbaa !4
  call void @bench_stats_sym_finish(ptr noundef @.str.39, i32 noundef 0, i32 noundef %55, i32 noundef %56, double noundef %57, i32 noundef %58)
  br label %59

59:                                               ; preds = %54, %36
  br label %60

60:                                               ; preds = %59
  br label %61

61:                                               ; preds = %60
  br label %62

62:                                               ; preds = %61
  br label %63

63:                                               ; preds = %62
  br label %64

64:                                               ; preds = %63
  br label %65

65:                                               ; preds = %64
  call void @llvm.lifetime.end.p0(i64 16, ptr %6) #12
  call void @llvm.lifetime.end.p0(i64 13, ptr %5) #12
  call void @llvm.lifetime.end.p0(i64 4, ptr %4) #12
  call void @llvm.lifetime.end.p0(i64 4, ptr %3) #12
  call void @llvm.lifetime.end.p0(i64 4, ptr %2) #12
  call void @llvm.lifetime.end.p0(i64 8, ptr %1) #12
  ret void
}