; Function Attrs: nounwind uwtable
define dso_local void @bench_chacha20_poly1305_aead() local_unnamed_addr #0 {
  %1 = alloca %struct.timespec, align 8
  %2 = alloca %struct.timespec, align 8
  %3 = alloca [13 x i8], align 1
  %4 = alloca [16 x i8], align 16
  call void @llvm.lifetime.start.p0(i64 13, ptr nonnull %3) #16
  call void @llvm.lifetime.start.p0(i64 16, ptr nonnull %4) #16
  call void @llvm.memset.p0.i64(ptr noundef nonnull align 1 dereferenceable(13) %3, i8 0, i64 13, i1 false)
  call void @llvm.memset.p0.i64(ptr noundef nonnull align 16 dereferenceable(16) %4, i8 0, i64 16, i1 false)
  call void @llvm.lifetime.start.p0(i64 16, ptr nonnull %2) #16
  %5 = call i32 @clock_gettime(i32 noundef 0, ptr noundef nonnull %2) #16
  %6 = icmp slt i32 %5, 0
  br i1 %6, label %7, label %bench_stats_start.exit

7:                                                ; preds = %0
  %8 = tail call ptr @__errno_location() #17
  %9 = load i32, ptr %8, align 4, !tbaa !4
  %10 = call i32 (ptr, ...) @printf(ptr noundef nonnull dereferenceable(1) @.str.78, ptr noundef nonnull @.str.113, ptr noundef nonnull @.str.79, i32 noundef 14994, i32 noundef %9, ptr noundef nonnull @.str.80)
  %11 = load ptr, ptr @stdout, align 8, !tbaa !14
  %12 = call i32 @fflush(ptr noundef %11)
  call void @_exit(i32 noundef 1) #18
  unreachable

bench_stats_start.exit:                           ; preds = %0
  %13 = load i64, ptr %2, align 8, !tbaa !16
  %14 = sitofp i64 %13 to double
  %15 = getelementptr inbounds nuw i8, ptr %2, i64 8
  %16 = load i64, ptr %15, align 8, !tbaa !19
  %17 = sitofp i64 %16 to double
  %18 = fdiv double %17, 1.000000e+09
  %19 = fadd double %18, %14
  call void @llvm.lifetime.end.p0(i64 16, ptr nonnull %2) #16
  %20 = call { i32, i32 } asm sideeffect "cpuid\0A\09rdtsc", "={ax},={dx},{ax},~{ebx},~{ecx},~{dirflag},~{fpsr},~{flags}"(i32 0) #16, !srcloc !20
  %21 = extractvalue { i32, i32 } %20, 0
  %22 = extractvalue { i32, i32 } %20, 1
  %23 = zext i32 %21 to i64
  %24 = zext i32 %22 to i64
  %25 = shl nuw i64 %24, 32
  %26 = or disjoint i64 %25, %23
  %27 = call align 8 ptr @llvm.threadlocal.address.p0(ptr align 8 @total_cycles)
  store i64 %26, ptr %27, align 8, !tbaa !21
  %28 = call align 8 ptr @llvm.threadlocal.address.p0(ptr align 8 @bench_key)
  %29 = call align 8 ptr @llvm.threadlocal.address.p0(ptr align 8 @bench_iv)
  %30 = call align 8 ptr @llvm.threadlocal.address.p0(ptr align 8 @bench_plain)
  %31 = call align 8 ptr @llvm.threadlocal.address.p0(ptr align 8 @bench_cipher)
  %32 = getelementptr inbounds nuw i8, ptr %1, i64 8
  br label %33

33:                                               ; preds = %bench_stats_check.exit, %bench_stats_start.exit
  %.011 = phi i32 [ 0, %bench_stats_start.exit ], [ %58, %bench_stats_check.exit ]
  %.06 = phi i32 [ 0, %bench_stats_start.exit ], [ %.1.lcssa, %bench_stats_check.exit ]
  %34 = load i32, ptr @numBlocks, align 4, !tbaa !4
  %35 = icmp sgt i32 %34, 0
  br i1 %35, label %.lr.ph, label %._crit_edge

.lr.ph:                                           ; preds = %33, %46
  %.017 = phi i32 [ %47, %46 ], [ 0, %33 ]
  %36 = load ptr, ptr %28, align 8, !tbaa !8
  %37 = load ptr, ptr %29, align 8, !tbaa !8
  %38 = load i32, ptr @aesAuthAddSz, align 4, !tbaa !4
  %39 = load ptr, ptr %30, align 8, !tbaa !8
  %40 = load i32, ptr @bench_size, align 4, !tbaa !4
  %41 = load ptr, ptr %31, align 8, !tbaa !8
  %42 = call i32 @wc_ChaCha20Poly1305_Encrypt(ptr noundef %36, ptr noundef %37, ptr noundef nonnull %3, i32 noundef %38, ptr noundef %39, i32 noundef %40, ptr noundef %41, ptr noundef nonnull %4) #16
  %43 = icmp slt i32 %42, 0
  br i1 %43, label %44, label %46

44:                                               ; preds = %.lr.ph
  %45 = call i32 (ptr, ...) @printf(ptr noundef nonnull dereferenceable(1) @.str.38, i32 noundef %42)
  br label %69

46:                                               ; preds = %.lr.ph
  %47 = add nuw nsw i32 %.017, 1
  %48 = load i32, ptr @numBlocks, align 4, !tbaa !4
  %49 = icmp slt i32 %47, %48
  br i1 %49, label %.lr.ph, label %._crit_edge, !llvm.loop !38

._crit_edge:                                      ; preds = %46, %33
  %.1.lcssa = phi i32 [ %.06, %33 ], [ %42, %46 ]
  %.0.lcssa = phi i32 [ 0, %33 ], [ %47, %46 ]
  call void @llvm.lifetime.start.p0(i64 16, ptr nonnull %1) #16
  %50 = call i32 @clock_gettime(i32 noundef 0, ptr noundef nonnull %1) #16
  %51 = icmp slt i32 %50, 0
  br i1 %51, label %52, label %bench_stats_check.exit

52:                                               ; preds = %._crit_edge
  %53 = tail call ptr @__errno_location() #17
  %54 = load i32, ptr %53, align 4, !tbaa !4
  %55 = call i32 (ptr, ...) @printf(ptr noundef nonnull dereferenceable(1) @.str.78, ptr noundef nonnull @.str.113, ptr noundef nonnull @.str.79, i32 noundef 14994, i32 noundef %54, ptr noundef nonnull @.str.80)
  %56 = load ptr, ptr @stdout, align 8, !tbaa !14
  %57 = call i32 @fflush(ptr noundef %56)
  call void @_exit(i32 noundef 1) #18
  unreachable

bench_stats_check.exit:                           ; preds = %._crit_edge
  %58 = add nuw nsw i32 %.0.lcssa, %.011
  %59 = load i64, ptr %1, align 8, !tbaa !16
  %60 = sitofp i64 %59 to double
  %61 = load i64, ptr %32, align 8, !tbaa !19
  %62 = sitofp i64 %61 to double
  %63 = fdiv double %62, 1.000000e+09
  %64 = fadd double %63, %60
  call void @llvm.lifetime.end.p0(i64 16, ptr nonnull %1) #16
  %65 = fsub double %64, %19
  %66 = fcmp uge double %65, 1.000000e+00
  br i1 %66, label %67, label %33, !llvm.loop !39

67:                                               ; preds = %bench_stats_check.exit
  %68 = load i32, ptr @bench_size, align 4, !tbaa !4
  call fastcc void @bench_stats_sym_finish(ptr noundef nonnull @.str.39, i32 noundef %58, i32 noundef %68, double noundef %19, i32 noundef %.1.lcssa)
  br label %69

69:                                               ; preds = %67, %44
  call void @llvm.lifetime.end.p0(i64 16, ptr nonnull %4) #16
  call void @llvm.lifetime.end.p0(i64 13, ptr nonnull %3) #16
  ret void
}